; Function Attrs: mustprogress uwtable
define void @_ZN4pkpy5BytesC2ESt17basic_string_viewIcSt11char_traitsIcEE(ptr nocapture noundef nonnull align 8 dereferenceable(12) %0, i64 %1, ptr nocapture readonly %2) unnamed_addr #4 align 2 {
  %4 = tail call noalias noundef nonnull ptr @_Znam(i64 noundef %1) #13
  store ptr %4, ptr %0, align 8
  %5 = trunc i64 %1 to i32
  %6 = getelementptr inbounds i8, ptr %0, i64 8
  store i32 %5, ptr %6, align 8
  %7 = icmp sgt i32 %5, 0
  br i1 %7, label %.lr.ph, label %._crit_edge

.lr.ph:                                           ; preds = %3, %.lr.ph
  %indvars.iv = phi i64 [ %indvars.iv.next, %.lr.ph ], [ 0, %3 ]
  %8 = getelementptr inbounds i8, ptr %2, i64 %indvars.iv
  %9 = load i8, ptr %8, align 1
  %10 = load ptr, ptr %0, align 8
  %11 = getelementptr inbounds i8, ptr %10, i64 %indvars.iv
  store i8 %9, ptr %11, align 1
  %indvars.iv.next = add nuw nsw i64 %indvars.iv, 1
  %12 = load i32, ptr %6, align 8
  %13 = sext i32 %12 to i64
  %14 = icmp slt i64 %indvars.iv.next, %13
  br i1 %14, label %.lr.ph, label %._crit_edge, !llvm.loop !6

._crit_edge:                                      ; preds = %.lr.ph, %3
  ret void
}